Certificate:
    Data:
        Version: 3 (0x2)
        Serial Number:
            5f:d7:ca:28:90:92:94:90:53:00:39:3a:aa:f4:2c:ab:d8:64:a2:d6
        Signature Algorithm: sha1WithRSAEncryption
        Issuer: O = Example Org., CN = example.org
        Validity
            Not Before: Feb 20 12:23:30 2022 GMT
            Not After : Feb 18 12:23:30 2032 GMT
        Subject: O = Example Org., CN = example.org
        Subject Public Key Info:
            Public Key Algorithm: rsaEncryption
                RSA Public-Key: (4096 bit)
                Modulus:
                    00:aa:c5:63:b1:01:e1:f1:0f:1e:5c:61:5f:0a:e8:
                    2f:d7:7a:90:b0:49:f3:1e:a0:74:87:a8:f9:41:c0:
                    3a:cd:14:43:34:84:d5:26:d8:6d:11:d6:a0:f5:dc:
                    f2:1f:d2:27:81:ad:30:d0:67:1d:42:c9:0d:0b:a1:
                    01:32:28:00:09:0f:ed:a5:1b:2a:58:c0:64:7e:fa:
                    8f:51:a9:d4:31:4f:87:d2:72:55:69:e4:8e:5d:2b:
                    2c:6d:d5:74:f1:53:07:6b:e2:7e:3a:05:fd:42:e8:
                    64:ec:af:d6:42:fe:a1:39:0b:67:b2:45:c1:bd:3c:
                    0f:a1:b5:fa:b0:fb:68:64:7f:56:9e:ff:ab:53:c8:
                    49:c1:25:c2:4a:ac:c1:42:74:18:f2:45:ff:03:80:
                    bb:ab:76:24:35:64:9f:e9:d8:9a:58:5f:3a:00:68:
                    6d:ef:a2:d4:7d:1b:a3:d8:a8:bb:d7:b0:30:d3:19:
                    7a:c8:64:f3:b8:3b:27:4d:8c:6f:bd:dd:d1:a3:0b:
                    da:1b:95:dd:02:58:4d:9c:f8:21:79:4a:de:4d:c2:
                    04:45:ab:c4:d6:7f:a8:dd:45:e6:56:a6:e2:30:c0:
                    c8:c9:6b:21:6f:08:ce:f7:d4:80:08:6b:8b:4f:85:
                    d5:26:2e:17:bc:5a:c8:01:a8:ea:53:d4:65:8d:d2:
                    62:36:12:7c:85:42:04:62:83:93:04:60:25:7b:52:
                    95:62:13:54:19:a9:e2:18:fe:06:f6:22:67:19:11:
                    37:10:8d:28:5f:1c:70:cb:7c:03:96:41:8f:6c:7b:
                    00:25:81:5e:3a:36:4a:f6:29:66:4f:45:1c:f8:38:
                    72:ac:dd:83:61:76:0c:9c:06:8c:0d:2b:98:ef:49:
                    8c:fd:ab:ad:c8:df:9e:1d:3b:e3:9b:3d:58:02:d5:
                    8e:ab:81:13:27:11:5d:ae:90:ca:ca:48:cb:9b:d0:
                    47:a2:a1:45:d2:38:d1:19:b0:d2:2a:55:83:5e:b0:
                    16:82:dd:be:5b:c1:50:08:11:14:bf:7b:18:b9:7b:
                    ed:39:29:cf:9d:3e:50:09:87:ed:e4:72:3d:16:bf:
                    70:c9:12:f6:4d:09:8c:7a:9d:ee:94:00:25:22:c0:
                    2a:12:f1:01:43:06:4b:39:7c:9a:06:ae:90:06:07:
                    75:81:62:64:0b:99:87:9a:43:1e:0c:86:7d:d3:56:
                    be:1a:29:5b:50:94:87:0d:57:89:4d:8f:82:a3:67:
                    9c:a2:f0:5f:ce:50:47:f5:98:47:95:c2:49:d8:3b:
                    c9:5a:c3:ad:52:56:9f:43:61:a5:aa:81:8a:ee:94:
                    3e:b3:a5:9d:59:db:bd:21:6a:40:da:44:30:b6:52:
                    43:11:ab
                Exponent: 65537 (0x10001)
        X509v3 extensions:
            X509v3 Subject Key Identifier: 
                DD:70:51:56:39:36:92:6D:7D:76:15:76:32:F5:06:F0:DD:19:CD:67
            X509v3 Authority Key Identifier: 
                keyid:DD:70:51:56:39:36:92:6D:7D:76:15:76:32:F5:06:F0:DD:19:CD:67

            X509v3 Basic Constraints: critical
                CA:TRUE
    Signature Algorithm: sha1WithRSAEncryption
         12:b9:c9:2f:0c:90:87:dc:76:84:ff:6e:22:34:3b:3a:d1:77:
         1a:1e:2e:6a:96:aa:83:2a:ef:6b:84:73:bf:d1:5c:aa:8c:1d:
         98:31:25:44:46:03:c9:a5:a7:a0:ee:51:90:61:69:34:d1:d7:
         9e:82:e2:bb:90:65:14:53:c9:bb:10:94:e3:24:ce:f1:1c:33:
         48:3f:02:83:c2:0a:a0:a0:a9:28:70:44:2e:d5:d9:99:68:66:
         78:0f:81:29:43:dc:7f:b6:3b:2b:84:e9:a9:32:bc:89:92:6e:
         fa:c7:af:0e:69:de:d7:e7:07:aa:7c:9d:97:93:7c:e4:72:9d:
         51:72:cc:0c:e9:37:58:1b:7f:46:3d:9e:44:62:14:72:38:26:
         4b:4f:40:ba:1a:39:b4:f8:6b:ec:4f:28:9f:ed:1a:4c:9c:71:
         47:90:f1:ec:1e:6f:75:d7:70:32:a6:7f:16:a1:1e:1c:c3:6f:
         dd:5f:ba:61:fd:e2:2e:63:d9:81:9e:e5:56:73:ed:89:c1:53:
         1d:82:3e:78:a0:d3:9e:e9:c4:ff:21:c8:ac:cf:63:a4:2e:8c:
         67:2e:75:28:db:e3:ee:61:9d:1f:bc:4e:10:93:e7:d2:92:b4:
         40:c9:45:cf:0b:d1:e0:8e:35:28:e6:2f:da:56:3d:22:92:c9:
         12:6a:5b:c3:c7:01:5c:1f:0a:ee:d8:d9:66:a8:12:d3:3d:1f:
         ca:de:ca:94:84:db:43:97:6b:f3:6e:fc:5b:6b:db:83:d8:1a:
         28:ea:cf:65:2a:32:13:fb:55:72:de:d0:8c:ac:14:c8:25:b9:
         a5:5d:c8:a7:56:46:45:5f:60:72:b2:ae:a8:76:25:72:8b:f1:
         a3:91:77:40:a9:d8:f0:17:9f:6e:cf:1f:0b:a1:47:ae:3f:45:
         34:ca:ab:cc:e4:c9:8b:98:21:46:19:94:57:97:1a:c9:a2:cd:
         f5:c1:eb:40:dc:19:8f:77:89:f8:36:54:2a:04:ec:4c:b8:74:
         5f:69:c2:fd:0e:01:19:a6:12:97:5f:c2:82:c3:a2:92:ff:20:
         65:28:8c:6e:6d:44:5d:27:ce:70:6c:42:d8:e4:4e:01:9c:a8:
         e3:9a:66:30:59:56:40:66:9a:a5:bb:a2:d8:71:8b:99:b3:1d:
         4a:a1:29:c6:c5:03:6f:8e:b1:c2:e8:11:aa:b6:9f:4b:32:64:
         80:4b:30:6f:03:ec:18:1f:12:06:97:c5:08:25:58:88:59:0a:
         f9:d3:e1:fe:db:ee:f3:da:39:2a:3a:66:df:bd:70:8f:69:58:
         35:dc:6c:d2:15:dc:1d:58:c3:a5:66:82:4e:34:b4:be:57:09:
         f9:b0:80:e4:9c:e2:dd:b5
-----BEGIN CERTIFICATE-----
MIIFOzCCAyOgAwIBAgIUX9fKKJCSlJBTADk6qvQsq9hkotYwDQYJKoZIhvcNAQEF
BQAwLTEVMBMGA1UECgwMRXhhbXBsZSBPcmcuMRQwEgYDVQQDDAtleGFtcGxlLm9y
ZzAeFw0yMjAyMjAxMjIzMzBaFw0zMjAyMTgxMjIzMzBaMC0xFTATBgNVBAoMDEV4
YW1wbGUgT3JnLjEUMBIGA1UEAwwLZXhhbXBsZS5vcmcwggIiMA0GCSqGSIb3DQEB
AQUAA4ICDwAwggIKAoICAQCqxWOxAeHxDx5cYV8K6C/XepCwSfMeoHSHqPlBwDrN
FEM0hNUm2G0R1qD13PIf0ieBrTDQZx1CyQ0LoQEyKAAJD+2lGypYwGR++o9RqdQx
T4fSclVp5I5dKyxt1XTxUwdr4n46Bf1C6GTsr9ZC/qE5C2eyRcG9PA+htfqw+2hk
f1ae/6tTyEnBJcJKrMFCdBjyRf8DgLurdiQ1ZJ/p2JpYXzoAaG3votR9G6PYqLvX
sDDTGXrIZPO4OydNjG+93dGjC9obld0CWE2c+CF5St5NwgRFq8TWf6jdReZWpuIw
wMjJayFvCM731IAIa4tPhdUmLhe8WsgBqOpT1GWN0mI2EnyFQgRig5MEYCV7UpVi
E1QZqeIY/gb2ImcZETcQjShfHHDLfAOWQY9sewAlgV46Nkr2KWZPRRz4OHKs3YNh
dgycBowNK5jvSYz9q63I354dO+ObPVgC1Y6rgRMnEV2ukMrKSMub0EeioUXSONEZ
sNIqVYNesBaC3b5bwVAIERS/exi5e+05Kc+dPlAJh+3kcj0Wv3DJEvZNCYx6ne6U
ACUiwCoS8QFDBks5fJoGrpAGB3WBYmQLmYeaQx4Mhn3TVr4aKVtQlIcNV4lNj4Kj
Z5yi8F/OUEf1mEeVwknYO8law61SVp9DYaWqgYrulD6zpZ1Z270hakDaRDC2UkMR
qwIDAQABo1MwUTAdBgNVHQ4EFgQU3XBRVjk2km19dhV2MvUG8N0ZzWcwHwYDVR0j
BBgwFoAU3XBRVjk2km19dhV2MvUG8N0ZzWcwDwYDVR0TAQH/BAUwAwEB/zANBgkq
hkiG9w0BAQUFAAOCAgEAErnJLwyQh9x2hP9uIjQ7OtF3Gh4uapaqgyrva4Rzv9Fc
qowdmDElREYDyaWnoO5RkGFpNNHXnoLiu5BlFFPJuxCU4yTO8RwzSD8Cg8IKoKCp
KHBELtXZmWhmeA+BKUPcf7Y7K4TpqTK8iZJu+sevDmne1+cHqnydl5N85HKdUXLM
DOk3WBt/Rj2eRGIUcjgmS09Auho5tPhr7E8on+0aTJxxR5Dx7B5vdddwMqZ/FqEe
HMNv3V+6Yf3iLmPZgZ7lVnPticFTHYI+eKDTnunE/yHIrM9jpC6MZy51KNvj7mGd
H7xOEJPn0pK0QMlFzwvR4I41KOYv2lY9IpLJEmpbw8cBXB8K7tjZZqgS0z0fyt7K
lITbQ5dr8278W2vbg9gaKOrPZSoyE/tVct7QjKwUyCW5pV3Ip1ZGRV9gcrKuqHYl
covxo5F3QKnY8Befbs8fC6FHrj9FNMqrzOTJi5ghRhmUV5cayaLN9cHrQNwZj3eJ
+DZUKgTsTLh0X2nC/Q4BGaYSl1/CgsOikv8gZSiMbm1EXSfOcGxC2OROAZyo45pm
MFlWQGaapbui2HGLmbMdSqEpxsUDb46xwugRqrafSzJkgEswbwPsGB8SBpfFCCVY
iFkK+dPh/tvu89o5Kjpm371wj2lYNdxs0hXcHVjDpWaCTjS0vlcJ+bCA5Jzi3bU=
-----END CERTIFICATE-----
