Certificate:
    Data:
        Version: 3 (0x2)
        Serial Number:
            c6:44:d3:76:a7:c5:34:61
    Signature Algorithm: sha1WithRSAEncryption
        Issuer: O=Example Org., CN=example.org
        Validity
            Not Before: Apr 12 19:31:36 2025 GMT
            Not After : Apr 10 19:31:36 2035 GMT
        Subject: O=Example Org., CN=example.org
        Subject Public Key Info:
            Public Key Algorithm: rsaEncryption
                Public-Key: (4096 bit)
                Modulus:
                    00:b6:0f:72:76:ac:4c:39:14:ab:0c:1c:9b:a8:6c:
                    b3:1b:fc:1b:75:25:2e:5d:1e:21:06:df:e1:06:0e:
                    11:0b:28:de:29:c9:1e:b5:c5:4b:23:1f:1d:16:e4:
                    6a:f7:c1:ee:89:f4:0b:02:ee:f5:4e:16:78:c9:f9:
                    96:7d:01:b2:ad:27:60:5d:8f:7c:fb:14:ef:50:9d:
                    87:96:3b:70:e9:1b:08:47:bc:5e:83:36:91:b3:65:
                    f2:2f:90:ac:c0:70:2d:88:a8:6b:d0:10:bd:d4:6b:
                    ab:14:d1:cf:1b:e3:8f:5d:38:ae:2c:7f:1a:74:9a:
                    61:55:df:2d:b3:8c:9f:79:9b:e7:7b:9d:ae:18:45:
                    65:3c:19:c1:21:b9:8d:66:70:1b:00:5e:ba:93:fb:
                    0f:49:3a:56:e5:d4:b1:b2:46:2a:48:b5:6f:ae:ac:
                    40:5c:67:16:93:f1:bc:20:95:e8:82:c3:7c:b1:c6:
                    79:da:bd:6d:54:40:fc:63:f8:50:17:c7:26:13:cc:
                    ad:8d:9d:d8:83:58:1d:7d:a0:71:ab:89:4d:61:17:
                    9f:32:23:ac:c6:42:f2:95:ed:29:f1:12:23:29:90:
                    dc:3b:29:c8:e4:01:57:2a:88:01:57:94:86:df:26:
                    89:b1:de:41:c8:ae:8a:21:a2:d9:5e:e0:1c:b0:19:
                    2c:55:32:14:0c:aa:af:84:4b:c5:5a:44:ac:72:f7:
                    0b:6d:f6:2a:61:71:3e:85:ae:97:3f:53:69:60:6d:
                    17:d1:23:c6:4d:79:0d:d8:3a:74:34:52:10:af:c6:
                    cd:50:5e:f4:fc:98:e6:a8:09:56:df:8e:26:6f:10:
                    ad:92:54:8c:95:4b:b8:86:9d:4c:19:84:6e:0b:43:
                    3c:d3:20:fb:f2:0e:2d:41:9c:5e:9d:91:f5:1e:8a:
                    e2:62:23:c5:05:3d:9e:9d:15:dc:a2:81:17:29:08:
                    b4:6d:1c:23:8d:de:33:1a:7d:62:82:cd:0c:6b:96:
                    8f:fb:9e:05:50:92:1d:8e:f6:71:ca:8d:88:ac:66:
                    c8:1f:76:aa:32:63:7d:1d:6d:a2:53:f8:82:fe:92:
                    77:9b:07:87:e6:ba:24:d4:c3:3f:7a:67:06:5b:ac:
                    9c:14:b6:c0:67:99:bf:94:0a:f0:c1:67:ee:5a:01:
                    92:c0:72:1d:ef:72:cf:8b:2e:5c:f8:c2:03:69:76:
                    02:40:51:dc:ff:fb:d8:74:f7:01:d7:6a:79:63:5c:
                    9e:12:c9:34:d7:8b:f0:3f:b3:25:f6:5a:65:a0:f3:
                    b2:af:42:1d:4d:a4:7c:2d:75:c2:d2:eb:2d:a7:bd:
                    b2:0d:30:5f:64:8c:3d:78:ad:06:9e:42:02:f5:56:
                    1f:f6:97
                Exponent: 65537 (0x10001)
        X509v3 extensions:
            X509v3 Subject Key Identifier: 
                10:68:9F:FB:A7:BF:34:B2:5E:5E:25:B9:FE:97:60:3D:42:E7:4A:59
            X509v3 Authority Key Identifier: 
                keyid:10:68:9F:FB:A7:BF:34:B2:5E:5E:25:B9:FE:97:60:3D:42:E7:4A:59

            X509v3 Basic Constraints: 
                CA:TRUE
    Signature Algorithm: sha1WithRSAEncryption
         59:3b:da:9c:32:f4:86:eb:04:cd:4c:78:e4:00:b4:a1:77:d4:
         13:cd:ef:c4:c5:0c:c5:1b:40:c8:18:7b:a3:23:80:e1:9d:c7:
         8d:d0:ad:2c:bc:f7:fa:ef:61:c9:69:f5:58:36:88:99:41:62:
         1c:6e:b5:f5:74:da:90:01:f7:88:1d:74:27:3e:9b:f8:30:bb:
         90:bf:65:e0:d3:77:3b:c5:b1:48:fd:11:38:2f:9a:eb:be:bf:
         f1:6f:05:34:0f:c1:c0:78:60:94:1f:7c:f3:64:8b:e1:a7:86:
         f6:36:a2:6c:88:62:51:26:07:19:c7:14:e3:1f:f0:d4:46:82:
         e8:d2:1f:f9:4f:d0:30:eb:cd:c6:b1:b5:b6:c4:44:cd:cf:d0:
         e8:0f:5a:57:1b:e9:d6:ad:8b:62:7b:90:c8:92:cc:f4:2e:a7:
         04:72:a7:b6:7d:9e:5e:b1:59:3f:70:1a:8b:ef:fb:21:dd:08:
         ea:bf:f6:a8:0b:21:3e:c2:24:b1:f3:35:53:15:e5:10:64:f7:
         d1:be:bf:57:76:aa:a4:03:1d:58:43:cb:10:3e:dd:f5:62:6b:
         ac:fe:e9:0d:87:59:0f:09:4a:e8:e9:87:f5:2a:25:17:8c:6a:
         bc:c0:a9:73:0b:68:b8:7d:f0:39:d3:fa:98:bd:b3:e6:61:f1:
         9a:b4:df:54:51:d4:6d:fe:ab:dc:07:eb:61:9e:64:0f:bd:5f:
         ee:8a:0e:ee:ad:73:5a:b1:4b:64:e2:b3:36:35:a4:5e:6c:a4:
         7b:90:1a:f5:bb:e9:92:11:3d:d4:f8:95:ab:09:ec:ed:9c:bd:
         c8:07:5c:0b:98:88:96:5b:9c:b1:de:bc:0e:90:56:3b:ee:50:
         c5:4c:f7:a2:61:ce:7d:68:76:04:f0:aa:76:a7:72:59:c0:41:
         44:99:0f:ad:64:f2:14:83:3e:1d:b1:4a:8f:8b:3e:5c:29:cf:
         26:56:7e:96:7d:87:c2:06:2f:5f:94:e6:f9:e7:5d:34:85:2d:
         bc:5e:16:8a:f9:ba:ef:e3:68:37:89:8b:71:e7:e6:73:86:8c:
         92:98:0d:2c:8c:bc:3f:93:b3:6e:d5:6d:f8:4b:0f:8b:bb:31:
         9b:00:59:1e:3e:6d:08:31:d5:39:49:ed:a8:f6:1a:1c:0d:21:
         54:f0:08:f6:71:3b:2e:85:eb:dd:37:95:c8:b2:74:a1:bd:0e:
         e9:a9:c0:11:e2:5e:34:e1:6a:5b:0e:26:04:71:32:a9:db:77:
         7c:db:6a:dc:48:58:32:38:71:0f:c4:29:d8:75:2a:f4:62:3d:
         36:bd:06:99:7a:a0:13:2c:e2:14:42:fe:e3:14:ec:ca:1d:3b:
         4d:a6:b0:28:7f:e4:f4:bc
-----BEGIN CERTIFICATE-----
MIIFLTCCAxWgAwIBAgIJAMZE03anxTRhMA0GCSqGSIb3DQEBBQUAMC0xFTATBgNV
BAoMDEV4YW1wbGUgT3JnLjEUMBIGA1UEAwwLZXhhbXBsZS5vcmcwHhcNMjUwNDEy
MTkzMTM2WhcNMzUwNDEwMTkzMTM2WjAtMRUwEwYDVQQKDAxFeGFtcGxlIE9yZy4x
FDASBgNVBAMMC2V4YW1wbGUub3JnMIICIjANBgkqhkiG9w0BAQEFAAOCAg8AMIIC
CgKCAgEAtg9ydqxMORSrDBybqGyzG/wbdSUuXR4hBt/hBg4RCyjeKcketcVLIx8d
FuRq98HuifQLAu71ThZ4yfmWfQGyrSdgXY98+xTvUJ2Hljtw6RsIR7xegzaRs2Xy
L5CswHAtiKhr0BC91GurFNHPG+OPXTiuLH8adJphVd8ts4yfeZvne52uGEVlPBnB
IbmNZnAbAF66k/sPSTpW5dSxskYqSLVvrqxAXGcWk/G8IJXogsN8scZ52r1tVED8
Y/hQF8cmE8ytjZ3Yg1gdfaBxq4lNYRefMiOsxkLyle0p8RIjKZDcOynI5AFXKogB
V5SG3yaJsd5ByK6KIaLZXuAcsBksVTIUDKqvhEvFWkSscvcLbfYqYXE+ha6XP1Np
YG0X0SPGTXkN2Dp0NFIQr8bNUF70/JjmqAlW344mbxCtklSMlUu4hp1MGYRuC0M8
0yD78g4tQZxenZH1HoriYiPFBT2enRXcooEXKQi0bRwjjd4zGn1igs0Ma5aP+54F
UJIdjvZxyo2IrGbIH3aqMmN9HW2iU/iC/pJ3mweH5rok1MM/emcGW6ycFLbAZ5m/
lArwwWfuWgGSwHId73LPiy5c+MIDaXYCQFHc//vYdPcB12p5Y1yeEsk014vwP7Ml
9lploPOyr0IdTaR8LXXC0ustp72yDTBfZIw9eK0GnkIC9VYf9pcCAwEAAaNQME4w
HQYDVR0OBBYEFBBon/unvzSyXl4luf6XYD1C50pZMB8GA1UdIwQYMBaAFBBon/un
vzSyXl4luf6XYD1C50pZMAwGA1UdEwQFMAMBAf8wDQYJKoZIhvcNAQEFBQADggIB
AFk72pwy9IbrBM1MeOQAtKF31BPN78TFDMUbQMgYe6MjgOGdx43QrSy89/rvYclp
9Vg2iJlBYhxutfV02pAB94gddCc+m/gwu5C/ZeDTdzvFsUj9ETgvmuu+v/FvBTQP
wcB4YJQffPNki+GnhvY2omyIYlEmBxnHFOMf8NRGgujSH/lP0DDrzcaxtbbERM3P
0OgPWlcb6dati2J7kMiSzPQupwRyp7Z9nl6xWT9wGovv+yHdCOq/9qgLIT7CJLHz
NVMV5RBk99G+v1d2qqQDHVhDyxA+3fVia6z+6Q2HWQ8JSujph/UqJReMarzAqXML
aLh98DnT+pi9s+Zh8Zq031RR1G3+q9wH62GeZA+9X+6KDu6tc1qxS2TiszY1pF5s
pHuQGvW76ZIRPdT4lasJ7O2cvcgHXAuYiJZbnLHevA6QVjvuUMVM96Jhzn1odgTw
qnanclnAQUSZD61k8hSDPh2xSo+LPlwpzyZWfpZ9h8IGL1+U5vnnXTSFLbxeFor5
uu/jaDeJi3Hn5nOGjJKYDSyMvD+Ts27VbfhLD4u7MZsAWR4+bQgx1TlJ7aj2GhwN
IVTwCPZxOy6F6903lciydKG9DumpwBHiXjThalsOJgRxMqnbd3zbatxIWDI4cQ/E
Kdh1KvRiPTa9Bpl6oBMs4hRC/uMU7ModO02msCh/5PS8
-----END CERTIFICATE-----
