Certificate:
    Data:
        Version: 3 (0x2)
        Serial Number:
            a7:50:5a:23:61:94:a3:75:9b:98:51:df:c1:dd:09:c2
        Signature Algorithm: sha256WithRSAEncryption
        Issuer: O=Example Org., CN=example.org
        Validity
            Not Before: Feb 20 13:23:33 2022 GMT
            Not After : Feb 20 13:23:33 2023 GMT
        Subject: O=Example Org., CN=ldapsrv
        Subject Public Key Info:
            Public Key Algorithm: rsaEncryption
                RSA Public-Key: (2048 bit)
                Modulus:
                    00:e0:a8:ae:39:03:f8:5e:d2:57:29:67:e2:0f:64:
                    55:09:eb:77:74:ba:3a:1c:3f:95:30:77:76:82:69:
                    e0:ee:97:72:16:3a:40:f8:e7:07:f9:ee:19:63:5a:
                    9b:c0:fd:02:7a:52:d3:67:92:37:e5:98:e6:5b:51:
                    3c:f8:e4:54:d6:f1:47:bf:9e:3d:7c:e8:d8:81:91:
                    0b:f2:06:ce:d4:9f:c9:a3:8b:50:d9:5f:1d:f8:c8:
                    3e:21:55:e3:3b:a8:4f:e8:d0:f1:b5:3c:cd:72:8f:
                    b6:35:aa:a8:52:1e:d4:1c:1a:52:4c:72:92:62:d9:
                    74:f9:6b:73:7d:94:27:51:a2:ac:64:96:de:d9:3a:
                    19:bf:ab:03:d3:76:20:97:d9:f5:f3:ff:13:d4:d1:
                    f9:17:0f:43:02:a2:00:8c:1b:18:94:61:d1:32:7d:
                    65:7f:96:75:ae:5a:a3:12:0a:0c:83:db:82:f4:2f:
                    62:4e:05:c9:9c:30:70:c7:3b:4f:45:2a:12:44:07:
                    a6:c9:e0:51:7c:72:e0:ff:7f:b0:02:5c:3b:ae:66:
                    36:29:26:3e:f3:13:ea:0a:a1:f4:24:61:d6:89:20:
                    b5:b0:91:4d:00:de:73:81:89:a6:e9:7b:bc:21:64:
                    1b:ad:d2:9b:04:c4:67:46:53:8a:7b:96:ac:05:37:
                    2d:93
                Exponent: 65537 (0x10001)
        X509v3 extensions:
            X509v3 Basic Constraints: 
                CA:FALSE
            Netscape Comment: 
                OpenSSL Generated Certificate
            X509v3 Subject Key Identifier: 
                9F:FB:DE:3E:D5:D1:49:FC:03:88:A0:C4:27:85:13:2D:96:C6:5E:DC
            X509v3 Authority Key Identifier: 
                keyid:DD:70:51:56:39:36:92:6D:7D:76:15:76:32:F5:06:F0:DD:19:CD:67

            X509v3 Subject Alternative Name: 
                DNS:ldapsrv
    Signature Algorithm: sha256WithRSAEncryption
         66:d3:04:d6:2d:0b:6d:b1:05:a1:51:9f:90:53:48:d9:6c:93:
         00:db:d4:6b:84:86:ca:61:e5:ad:f9:d7:3a:f9:0c:a8:44:4a:
         8c:f3:08:6c:00:8e:44:00:7a:3d:3a:fd:ec:a0:dd:3a:89:ec:
         0c:4a:e6:2e:7d:ac:0b:c5:bf:e3:8a:a2:b4:1c:c6:94:5f:39:
         17:ad:7b:1e:6f:bb:e5:9c:c4:1f:ee:57:84:55:80:08:d7:d7:
         e6:61:55:6d:13:46:ab:8d:89:1e:24:23:da:5d:3d:20:3f:95:
         9f:38:44:b4:7e:dc:d3:33:52:21:14:92:c6:80:85:ca:81:03:
         78:78:eb:39:2a:6b:11:1a:f9:9b:d0:2e:b1:14:83:9a:75:f0:
         f6:1b:77:0b:b0:1c:c9:92:7a:8d:26:14:89:fe:83:8c:a5:41:
         5f:c7:23:68:cc:8e:7d:69:40:f9:8f:c9:8d:fd:cc:41:75:52:
         10:34:03:90:ed:7e:80:70:f2:da:d9:47:b5:38:57:fc:7b:a9:
         cf:7d:27:99:b0:94:ca:29:99:38:e3:19:7a:05:b2:2f:8b:05:
         1f:6b:de:88:5a:66:51:97:34:cc:34:5f:41:5e:79:6d:98:57:
         d5:29:aa:58:18:4e:2b:ec:21:0f:7f:55:75:8a:9b:09:df:ce:
         bf:ec:24:f3:17:17:f0:b3:1f:fd:be:db:61:f0:64:a4:bf:e5:
         6f:29:e1:b4:d0:c2:bf:c9:41:42:12:21:38:6d:43:6d:41:4a:
         34:62:6c:47:f6:df:af:4f:f6:63:2f:fa:e2:27:1f:6f:6d:86:
         05:26:36:b0:05:3f:5c:26:6d:3a:6a:66:d5:d8:de:f5:2f:e1:
         3f:7d:ae:11:4c:a6:4e:ff:98:a5:53:10:6c:19:7c:02:40:be:
         64:a3:37:da:1b:8d:d7:89:69:59:d1:e2:b7:6c:27:c7:fa:bf:
         5d:b9:73:bf:9a:1b:39:b0:92:21:1a:7c:3c:d5:58:d2:0f:9b:
         31:34:6c:ba:74:25:28:3e:c2:6a:08:6a:d7:01:b4:c4:72:e4:
         36:63:0b:2a:8a:de:37:16:4d:58:22:d1:77:8c:98:12:51:e6:
         2b:4a:a9:2d:16:ed:38:ec:cb:a2:ac:c1:bb:d1:70:85:1e:43:
         94:8c:d3:d0:3a:d4:1e:71:59:7b:10:cb:06:ca:66:88:c7:c9:
         bd:b6:0b:4f:6f:40:b6:51:69:df:58:1e:cb:15:31:f9:e3:a7:
         d1:27:d8:9d:ee:55:81:25:fe:e6:a8:ad:59:98:19:8d:02:35:
         01:f1:e8:07:85:2e:41:da:0c:47:18:be:da:eb:34:73:42:2f:
         a4:b4:9b:e5:09:35:df:b7
-----BEGIN CERTIFICATE-----
MIIEcjCCAlqgAwIBAgIRAKdQWiNhlKN1m5hR38HdCcIwDQYJKoZIhvcNAQELBQAw
LTEVMBMGA1UECgwMRXhhbXBsZSBPcmcuMRQwEgYDVQQDDAtleGFtcGxlLm9yZzAe
Fw0yMjAyMjAxMzIzMzNaFw0yMzAyMjAxMzIzMzNaMCkxFTATBgNVBAoMDEV4YW1w
bGUgT3JnLjEQMA4GA1UEAwwHbGRhcHNydjCCASIwDQYJKoZIhvcNAQEBBQADggEP
ADCCAQoCggEBAOCorjkD+F7SVyln4g9kVQnrd3S6Ohw/lTB3doJp4O6XchY6QPjn
B/nuGWNam8D9AnpS02eSN+WY5ltRPPjkVNbxR7+ePXzo2IGRC/IGztSfyaOLUNlf
HfjIPiFV4zuoT+jQ8bU8zXKPtjWqqFIe1BwaUkxykmLZdPlrc32UJ1GirGSW3tk6
Gb+rA9N2IJfZ9fP/E9TR+RcPQwKiAIwbGJRh0TJ9ZX+Wda5aoxIKDIPbgvQvYk4F
yZwwcMc7T0UqEkQHpsngUXxy4P9/sAJcO65mNikmPvMT6gqh9CRh1okgtbCRTQDe
c4GJpul7vCFkG63SmwTEZ0ZTinuWrAU3LZMCAwEAAaOBkDCBjTAJBgNVHRMEAjAA
MCwGCWCGSAGG+EIBDQQfFh1PcGVuU1NMIEdlbmVyYXRlZCBDZXJ0aWZpY2F0ZTAd
BgNVHQ4EFgQUn/vePtXRSfwDiKDEJ4UTLZbGXtwwHwYDVR0jBBgwFoAU3XBRVjk2
km19dhV2MvUG8N0ZzWcwEgYDVR0RBAswCYIHbGRhcHNydjANBgkqhkiG9w0BAQsF
AAOCAgEAZtME1i0LbbEFoVGfkFNI2WyTANvUa4SGymHlrfnXOvkMqERKjPMIbACO
RAB6PTr97KDdOonsDErmLn2sC8W/44qitBzGlF85F617Hm+75ZzEH+5XhFWACNfX
5mFVbRNGq42JHiQj2l09ID+VnzhEtH7c0zNSIRSSxoCFyoEDeHjrOSprERr5m9Au
sRSDmnXw9ht3C7AcyZJ6jSYUif6DjKVBX8cjaMyOfWlA+Y/Jjf3MQXVSEDQDkO1+
gHDy2tlHtThX/Hupz30nmbCUyimZOOMZegWyL4sFH2veiFpmUZc0zDRfQV55bZhX
1SmqWBhOK+whD39VdYqbCd/Ov+wk8xcX8LMf/b7bYfBkpL/lbynhtNDCv8lBQhIh
OG1DbUFKNGJsR/bfr0/2Yy/64icfb22GBSY2sAU/XCZtOmpm1dje9S/hP32uEUym
Tv+YpVMQbBl8AkC+ZKM32huN14lpWdHit2wnx/q/Xblzv5obObCSIRp8PNVY0g+b
MTRsunQlKD7Caghq1wG0xHLkNmMLKoreNxZNWCLRd4yYElHmK0qpLRbtOOzLoqzB
u9FwhR5DlIzT0DrUHnFZexDLBspmiMfJvbYLT29AtlFp31geyxUx+eOn0SfYne5V
gSX+5qitWZgZjQI1AfHoB4UuQdoMRxi+2us0c0IvpLSb5Qk137c=
-----END CERTIFICATE-----
