Certificate:
    Data:
        Version: 3 (0x2)
        Serial Number: 268435457 (0x10000001)
    Signature Algorithm: sha256WithRSAEncryption
        Issuer: O=Example Org., CN=example.org
        Validity
            Not Before: Apr 12 19:34:33 2025 GMT
            Not After : Apr 12 19:34:33 2026 GMT
        Subject: O=Example Org., CN=ldapsrv
        Subject Public Key Info:
            Public Key Algorithm: rsaEncryption
                Public-Key: (2048 bit)
                Modulus:
                    00:bd:d7:54:d8:1a:3a:44:ac:f6:27:b4:d7:aa:01:
                    17:43:2f:59:d1:3e:f4:df:8c:51:72:b9:ea:19:1a:
                    13:81:c6:f2:75:8f:a3:fb:04:b1:13:94:d5:da:31:
                    7d:fd:6c:eb:12:c9:bd:9c:93:ac:75:92:c6:95:cc:
                    d4:b5:53:ac:89:88:9e:12:c1:23:e8:b0:c9:4e:45:
                    86:16:3b:8b:0e:23:a5:9a:a9:b0:e2:7a:0a:36:98:
                    6b:d3:fc:f1:52:4f:34:a4:bd:28:2c:5d:09:74:54:
                    a4:6b:0d:76:db:23:56:be:f4:a3:37:ab:e1:a7:4b:
                    c2:58:7c:29:c3:da:ff:37:1b:6f:c3:bf:34:ea:8f:
                    21:2b:dd:51:33:41:04:d5:ab:cc:3c:93:65:22:99:
                    a5:ce:65:69:bc:0d:6f:ea:a4:a8:15:ba:cd:cc:df:
                    5d:57:41:c8:0c:02:bc:45:c7:12:21:d7:a7:d8:c7:
                    97:8d:64:e8:90:29:db:cf:38:67:cc:ac:6b:04:bc:
                    42:5d:c8:4f:41:3f:14:e1:26:12:b0:2c:a3:77:08:
                    bd:81:6d:e5:17:7b:3c:44:cf:9c:e6:ee:31:6c:59:
                    61:f7:68:0d:bb:89:eb:d5:e9:a4:76:4a:4a:ab:98:
                    98:cb:95:6c:0c:49:6a:55:d4:3c:bf:4e:6c:31:a8:
                    47:b9
                Exponent: 65537 (0x10001)
        X509v3 extensions:
            X509v3 Basic Constraints: 
                CA:FALSE
            Netscape Comment: 
                OpenSSL Generated Certificate
            X509v3 Subject Key Identifier: 
                C8:55:21:28:99:07:F3:B6:14:D8:6B:0A:EA:49:35:15:E4:BC:52:49
            X509v3 Authority Key Identifier: 
                keyid:10:68:9F:FB:A7:BF:34:B2:5E:5E:25:B9:FE:97:60:3D:42:E7:4A:59

            X509v3 Subject Alternative Name: 
                DNS:ldapsrv
    Signature Algorithm: sha256WithRSAEncryption
         17:52:b2:c5:0d:c8:15:0e:10:b9:92:fa:4f:2f:8a:91:50:8b:
         65:97:85:12:7f:66:b9:03:73:7f:ca:f0:f3:20:4c:6e:43:7e:
         c9:9a:78:6a:e5:e1:84:48:66:3a:10:cd:d1:40:86:84:9f:7e:
         60:a0:48:34:a6:06:bd:a6:62:25:9e:80:79:fd:e6:6a:1c:5f:
         a2:4d:83:03:36:2d:a8:13:09:84:25:de:fc:76:1e:85:71:f5:
         bb:cf:2d:b5:a2:4a:a2:b6:7a:ea:e7:6e:7a:97:81:e6:16:43:
         a3:f1:07:41:ff:2a:24:af:fe:be:aa:49:be:13:ea:c0:e7:a9:
         29:99:c5:d3:c4:11:d2:cd:c2:f2:cb:65:8d:be:af:36:b4:3c:
         54:d3:56:3c:71:de:eb:98:8f:de:be:44:53:be:74:66:45:ba:
         78:88:7a:3c:a5:7f:2b:e2:b3:35:53:10:b5:92:2c:86:bd:b5:
         23:0e:a1:6f:9d:ce:45:39:76:a4:e3:fc:66:5f:b3:f7:02:e1:
         b3:55:a4:02:95:da:82:2b:0a:d8:b5:cc:88:c1:75:82:1c:77:
         c5:a4:32:4f:8e:a4:b8:6c:91:14:cb:b1:7e:23:88:d5:b1:c1:
         19:75:cc:a2:9f:c1:c7:46:9e:e0:3a:d9:9b:79:2a:71:d3:7b:
         c3:df:67:1a:a9:87:de:99:05:87:23:23:87:42:f5:af:8f:6a:
         f6:17:5d:06:07:b4:21:d0:3f:b0:a7:b0:78:6d:21:45:2f:06:
         0a:ba:e5:23:ed:5c:ac:af:6c:8d:0f:bb:38:de:74:a5:e2:11:
         32:10:19:21:ba:5e:dc:06:85:18:60:d2:ab:f3:ce:43:9e:7b:
         af:0e:83:8b:cc:65:a1:40:61:72:d3:e2:99:fb:a1:99:0b:b3:
         63:3e:2e:4e:0b:1b:15:71:8c:2d:2a:86:b0:88:c0:1a:1c:f8:
         ae:30:05:00:4c:6d:b7:d5:1a:1e:45:36:94:2e:0d:34:50:b5:
         31:fc:4c:d8:3d:1d:69:b5:2a:8a:66:e6:27:d6:77:94:46:ba:
         7b:e5:ff:89:06:cb:33:71:b6:3a:00:36:08:90:b3:48:03:c2:
         6a:4f:e7:7f:e4:4d:4c:72:39:79:6b:ee:53:0d:be:b2:d1:7b:
         cd:14:f5:9c:c8:c5:bd:bc:18:91:f3:ac:93:71:1f:a2:e4:52:
         8e:5d:63:8c:82:4b:ec:5c:99:36:4f:02:f1:93:12:91:84:ec:
         93:ce:9f:cf:90:45:c1:ea:a3:8b:0c:99:f0:ad:f3:5a:49:ee:
         31:05:ea:7d:8b:04:93:45:2f:0a:db:6d:ba:f3:25:cb:c1:41:
         32:cb:ca:bd:e7:d0:ad:cf
-----BEGIN CERTIFICATE-----
MIIEZTCCAk2gAwIBAgIEEAAAATANBgkqhkiG9w0BAQsFADAtMRUwEwYDVQQKDAxF
eGFtcGxlIE9yZy4xFDASBgNVBAMMC2V4YW1wbGUub3JnMB4XDTI1MDQxMjE5MzQz
M1oXDTI2MDQxMjE5MzQzM1owKTEVMBMGA1UECgwMRXhhbXBsZSBPcmcuMRAwDgYD
VQQDDAdsZGFwc3J2MIIBIjANBgkqhkiG9w0BAQEFAAOCAQ8AMIIBCgKCAQEAvddU
2Bo6RKz2J7TXqgEXQy9Z0T7034xRcrnqGRoTgcbydY+j+wSxE5TV2jF9/WzrEsm9
nJOsdZLGlczUtVOsiYieEsEj6LDJTkWGFjuLDiOlmqmw4noKNphr0/zxUk80pL0o
LF0JdFSkaw122yNWvvSjN6vhp0vCWHwpw9r/Nxtvw7806o8hK91RM0EE1avMPJNl
IpmlzmVpvA1v6qSoFbrNzN9dV0HIDAK8RccSIden2MeXjWTokCnbzzhnzKxrBLxC
XchPQT8U4SYSsCyjdwi9gW3lF3s8RM+c5u4xbFlh92gNu4nr1emkdkpKq5iYy5Vs
DElqVdQ8v05sMahHuQIDAQABo4GQMIGNMAkGA1UdEwQCMAAwLAYJYIZIAYb4QgEN
BB8WHU9wZW5TU0wgR2VuZXJhdGVkIENlcnRpZmljYXRlMB0GA1UdDgQWBBTIVSEo
mQfzthTYawrqSTUV5LxSSTAfBgNVHSMEGDAWgBQQaJ/7p780sl5eJbn+l2A9QudK
WTASBgNVHREECzAJggdsZGFwc3J2MA0GCSqGSIb3DQEBCwUAA4ICAQAXUrLFDcgV
DhC5kvpPL4qRUItll4USf2a5A3N/yvDzIExuQ37Jmnhq5eGESGY6EM3RQIaEn35g
oEg0pga9pmIlnoB5/eZqHF+iTYMDNi2oEwmEJd78dh6FcfW7zy21okqitnrq5256
l4HmFkOj8QdB/yokr/6+qkm+E+rA56kpmcXTxBHSzcLyy2WNvq82tDxU01Y8cd7r
mI/evkRTvnRmRbp4iHo8pX8r4rM1UxC1kiyGvbUjDqFvnc5FOXak4/xmX7P3AuGz
VaQCldqCKwrYtcyIwXWCHHfFpDJPjqS4bJEUy7F+I4jVscEZdcyin8HHRp7gOtmb
eSpx03vD32caqYfemQWHIyOHQvWvj2r2F10GB7Qh0D+wp7B4bSFFLwYKuuUj7Vys
r2yND7s43nSl4hEyEBkhul7cBoUYYNKr885DnnuvDoOLzGWhQGFy0+KZ+6GZC7Nj
Pi5OCxsVcYwtKoawiMAaHPiuMAUATG231RoeRTaULg00ULUx/EzYPR1ptSqKZuYn
1neURrp75f+JBsszcbY6ADYIkLNIA8JqT+d/5E1Mcjl5a+5TDb6y0XvNFPWcyMW9
vBiR86yTcR+i5FKOXWOMgkvsXJk2TwLxkxKRhOyTzp/PkEXB6qOLDJnwrfNaSe4x
Bep9iwSTRS8K22268yXLwUEyy8q959Ctzw==
-----END CERTIFICATE-----
